; Function Attrs: nounwind uwtable
define dso_local void @clusterCommandMyId(ptr noundef %0) local_unnamed_addr #0 {
  %2 = tail call ptr @getMyClusterNode() #16
  %3 = tail call ptr @clusterNodeGetName(ptr noundef %2) #16
  %.not = icmp eq ptr %3, null
  br i1 %.not, label %5, label %4

4:                                                ; preds = %1
  tail call void @addReplyBulkCBuffer(ptr noundef %0, ptr noundef nonnull %3, i64 noundef 40) #16
  br label %6

5:                                                ; preds = %1
  tail call void @addReplyError(ptr noundef %0, ptr noundef nonnull @.str.48) #16
  br label %6

6:                                                ; preds = %5, %4
  ret void
}